target datalayout = "e-m:e-p270:32:32-p271:32:32-p272:64:64-i64:64-i128:128-f80:128-n8:16:32:64-S128"
target triple = "x86_64-pc-linux-gnu"

%struct.notes_cache = type { %struct.notes_tree, ptr }
%struct.notes_tree = type { ptr, ptr, ptr, ptr, ptr, ptr, i32, i32 }
%struct.object_id = type { [32 x i8], i32 }

@the_repository = external global ptr, align 8
@.str.1 = private unnamed_addr constant [19 x i8] c"update notes cache\00", align 1

; Function Attrs: nounwind uwtable
define dso_local i32 @notes_cache_write(ptr noundef %0) #0 {
  %2 = alloca i32, align 4
  %3 = alloca ptr, align 8
  %4 = alloca %struct.object_id, align 4
  %5 = alloca %struct.object_id, align 4
  %6 = alloca i32, align 4
  store ptr %0, ptr %3, align 8, !tbaa !9
  call void @llvm.lifetime.start.p0(i64 36, ptr %4) #7
  call void @llvm.lifetime.start.p0(i64 36, ptr %5) #7
  %7 = load ptr, ptr %3, align 8, !tbaa !9
  %8 = icmp ne ptr %7, null
  br i1 %8, label %9, label %28

9:                                                ; preds = %1
  %10 = load ptr, ptr %3, align 8, !tbaa !9
  %11 = getelementptr inbounds nuw %struct.notes_cache, ptr %10, i32 0, i32 0
  %12 = getelementptr inbounds nuw %struct.notes_tree, ptr %11, i32 0, i32 6
  %13 = load i32, ptr %12, align 8, !tbaa !25
  %14 = icmp ne i32 %13, 0
  br i1 %14, label %15, label %28

15:                                               ; preds = %9
  %16 = load ptr, ptr %3, align 8, !tbaa !9
  %17 = getelementptr inbounds nuw %struct.notes_cache, ptr %16, i32 0, i32 0
  %18 = getelementptr inbounds nuw %struct.notes_tree, ptr %17, i32 0, i32 4
  %19 = load ptr, ptr %18, align 8, !tbaa !26
  %20 = icmp ne ptr %19, null
  br i1 %20, label %21, label %28

21:                                               ; preds = %15
  %22 = load ptr, ptr %3, align 8, !tbaa !9
  %23 = getelementptr inbounds nuw %struct.notes_cache, ptr %22, i32 0, i32 0
  %24 = getelementptr inbounds nuw %struct.notes_tree, ptr %23, i32 0, i32 4
  %25 = load ptr, ptr %24, align 8, !tbaa !26
  %26 = load i8, ptr %25, align 1, !tbaa !27
  %27 = icmp ne i8 %26, 0
  br i1 %27, label %29, label %28

28:                                               ; preds = %21, %15, %9, %1
  store i32 -1, ptr %2, align 4
  store i32 1, ptr %6, align 4
  br label %64

29:                                               ; preds = %21
  %30 = load ptr, ptr %3, align 8, !tbaa !9
  %31 = getelementptr inbounds nuw %struct.notes_cache, ptr %30, i32 0, i32 0
  %32 = getelementptr inbounds nuw %struct.notes_tree, ptr %31, i32 0, i32 7
  %33 = load i32, ptr %32, align 4, !tbaa !28
  %34 = icmp ne i32 %33, 0
  br i1 %34, label %36, label %35

35:                                               ; preds = %29
  store i32 0, ptr %2, align 4
  store i32 1, ptr %6, align 4
  br label %64

36:                                               ; preds = %29
  %37 = load ptr, ptr %3, align 8, !tbaa !9
  %38 = getelementptr inbounds nuw %struct.notes_cache, ptr %37, i32 0, i32 0
  %39 = call i32 @write_notes_tree(ptr noundef %38, ptr noundef %4)
  %40 = icmp ne i32 %39, 0
  br i1 %40, label %41, label %42

41:                                               ; preds = %36
  store i32 -1, ptr %2, align 4
  store i32 1, ptr %6, align 4
  br label %64

42:                                               ; preds = %36
  %43 = load ptr, ptr %3, align 8, !tbaa !9
  %44 = getelementptr inbounds nuw %struct.notes_cache, ptr %43, i32 0, i32 1
  %45 = load ptr, ptr %44, align 8, !tbaa !15
  %46 = load ptr, ptr %3, align 8, !tbaa !9
  %47 = getelementptr inbounds nuw %struct.notes_cache, ptr %46, i32 0, i32 1
  %48 = load ptr, ptr %47, align 8, !tbaa !15
  %49 = call i64 @strlen(ptr noundef %48) #8
  %50 = call i32 @commit_tree(ptr noundef %45, i64 noundef %49, ptr noundef %4, ptr noundef null, ptr noundef %5, ptr noundef null, ptr noundef null)
  %51 = icmp slt i32 %50, 0
  br i1 %51, label %52, label %53

52:                                               ; preds = %42
  store i32 -1, ptr %2, align 4
  store i32 1, ptr %6, align 4
  br label %64

53:                                               ; preds = %42
  %54 = load ptr, ptr @the_repository, align 8, !tbaa !4
  %55 = call ptr @get_main_ref_store(ptr noundef %54)
  %56 = load ptr, ptr %3, align 8, !tbaa !9
  %57 = getelementptr inbounds nuw %struct.notes_cache, ptr %56, i32 0, i32 0
  %58 = getelementptr inbounds nuw %struct.notes_tree, ptr %57, i32 0, i32 4
  %59 = load ptr, ptr %58, align 8, !tbaa !26
  %60 = call i32 @refs_update_ref(ptr noundef %55, ptr noundef @.str.1, ptr noundef %59, ptr noundef %5, ptr noundef null, i32 noundef 0, i32 noundef 2)
  %61 = icmp slt i32 %60, 0
  br i1 %61, label %62, label %63

62:                                               ; preds = %53
  store i32 -1, ptr %2, align 4
  store i32 1, ptr %6, align 4
  br label %64

63:                                               ; preds = %53
  store i32 0, ptr %2, align 4
  store i32 1, ptr %6, align 4
  br label %64

64:                                               ; preds = %63, %62, %52, %41, %35, %28
  call void @llvm.lifetime.end.p0(i64 36, ptr %5) #7
  call void @llvm.lifetime.end.p0(i64 36, ptr %4) #7
  %65 = load i32, ptr %2, align 4
  ret i32 %65
}