; Function Attrs: nounwind uwtable
define dso_local range(i32 -1, 1) i32 @notes_cache_write(ptr noundef %0) local_unnamed_addr #0 {
  %2 = alloca %struct.object_id, align 4
  %3 = alloca %struct.object_id, align 4
  call void @llvm.lifetime.start.p0(i64 36, ptr nonnull %2) #6
  call void @llvm.lifetime.start.p0(i64 36, ptr nonnull %3) #6
  %.not = icmp eq ptr %0, null
  br i1 %.not, label %28, label %4

4:                                                ; preds = %1
  %5 = getelementptr inbounds nuw i8, ptr %0, i64 48
  %6 = load i32, ptr %5, align 8, !tbaa !19
  %.not11 = icmp eq i32 %6, 0
  br i1 %.not11, label %28, label %7

7:                                                ; preds = %4
  %8 = getelementptr inbounds nuw i8, ptr %0, i64 32
  %9 = load ptr, ptr %8, align 8, !tbaa !20
  %.not12 = icmp eq ptr %9, null
  br i1 %.not12, label %28, label %10

10:                                               ; preds = %7
  %11 = load i8, ptr %9, align 1, !tbaa !21
  %.not13 = icmp eq i8 %11, 0
  br i1 %.not13, label %28, label %12

12:                                               ; preds = %10
  %13 = getelementptr inbounds nuw i8, ptr %0, i64 52
  %14 = load i32, ptr %13, align 4, !tbaa !22
  %.not14 = icmp eq i32 %14, 0
  br i1 %.not14, label %28, label %15

15:                                               ; preds = %12
  %16 = call i32 @write_notes_tree(ptr noundef nonnull %0, ptr noundef nonnull %2) #6
  %.not15 = icmp eq i32 %16, 0
  br i1 %.not15, label %17, label %28

17:                                               ; preds = %15
  %18 = getelementptr inbounds nuw i8, ptr %0, i64 56
  %19 = load ptr, ptr %18, align 8, !tbaa !4
  %20 = call i64 @strlen(ptr noundef nonnull dereferenceable(1) %19) #7
  %21 = call i32 @commit_tree(ptr noundef nonnull %19, i64 noundef %20, ptr noundef nonnull %2, ptr noundef null, ptr noundef nonnull %3, ptr noundef null, ptr noundef null) #6
  %22 = icmp slt i32 %21, 0
  br i1 %22, label %28, label %23

23:                                               ; preds = %17
  %24 = load ptr, ptr @the_repository, align 8, !tbaa !17
  %25 = call ptr @get_main_ref_store(ptr noundef %24) #6
  %26 = load ptr, ptr %8, align 8, !tbaa !20
  %27 = call i32 @refs_update_ref(ptr noundef %25, ptr noundef nonnull @.str.1, ptr noundef %26, ptr noundef nonnull %3, ptr noundef null, i32 noundef 0, i32 noundef 2) #6
  %.lobit = ashr i32 %27, 31
  br label %28

28:                                               ; preds = %23, %17, %15, %12, %1, %4, %7, %10
  %.0 = phi i32 [ -1, %10 ], [ -1, %7 ], [ -1, %4 ], [ -1, %1 ], [ 0, %12 ], [ -1, %15 ], [ -1, %17 ], [ %.lobit, %23 ]
  call void @llvm.lifetime.end.p0(i64 36, ptr nonnull %3) #6
  call void @llvm.lifetime.end.p0(i64 36, ptr nonnull %2) #6
  ret i32 %.0
}